target datalayout = "e-m:e-p270:32:32-p271:32:32-p272:64:64-i64:64-i128:128-f80:128-n8:16:32:64-S128"
target triple = "x86_64-pc-linux-gnu"

%class.Node = type <{ ptr, ptr, ptr, i32, i32, i32, i32, i32, i32, i32, [4 x i8] }>

; Function Attrs: mustprogress nounwind uwtable
define linkonce_odr hidden noundef ptr @_ZNK22BaseCountedLoopEndNode8cmp_nodeEv(ptr noundef nonnull align 8 dereferenceable(60) %0) #1 comdat align 2 {
  %2 = alloca ptr, align 8
  store ptr %0, ptr %2, align 8
  %3 = load ptr, ptr %2, align 8
  %4 = call noundef ptr @_ZNK4Node2inEj(ptr noundef nonnull align 8 dereferenceable(52) %3, i32 noundef 1)
  %5 = call noundef i32 @_ZNK4Node3reqEv(ptr noundef nonnull align 8 dereferenceable(52) %4)
  %6 = icmp uge i32 %5, 2
  br i1 %6, label %7, label %10

7:                                                ; preds = %1
  %8 = call noundef ptr @_ZNK4Node2inEj(ptr noundef nonnull align 8 dereferenceable(52) %3, i32 noundef 1)
  %9 = call noundef ptr @_ZNK4Node2inEj(ptr noundef nonnull align 8 dereferenceable(52) %8, i32 noundef 1)
  br label %11

10:                                               ; preds = %1
  br label %11

11:                                               ; preds = %10, %7
  %12 = phi ptr [ %9, %7 ], [ null, %10 ]
  ret ptr %12
}

; Function Attrs: mustprogress nounwind uwtable
define linkonce_odr hidden noundef ptr @_ZNK4Node6as_PhiEv(ptr noundef nonnull align 8 dereferenceable(52) %0) #1 comdat align 2 {
  %2 = alloca ptr, align 8
  store ptr %0, ptr %2, align 8
  %3 = load ptr, ptr %2, align 8
  ret ptr %3
}

; Function Attrs: mustprogress nounwind uwtable
define linkonce_odr hidden noundef zeroext i1 @_ZNK4Node6is_PhiEv(ptr noundef nonnull align 8 dereferenceable(52) %0) #1 comdat align 2 {
  %2 = alloca ptr, align 8
  store ptr %0, ptr %2, align 8
  %3 = load ptr, ptr %2, align 8
  %4 = getelementptr inbounds %class.Node, ptr %3, i32 0, i32 8
  %5 = load i32, ptr %4, align 4
  %6 = and i32 %5, 15
  %7 = icmp eq i32 %6, 12
  ret i1 %7
}

; Function Attrs: mustprogress nounwind uwtable
define linkonce_odr hidden noundef i32 @_ZNK4Node3reqEv(ptr noundef nonnull align 8 dereferenceable(52) %0) #1 comdat align 2 {
  %2 = alloca ptr, align 8
  store ptr %0, ptr %2, align 8
  %3 = load ptr, ptr %2, align 8
  %4 = getelementptr inbounds %class.Node, ptr %3, i32 0, i32 3
  %5 = load i32, ptr %4, align 8
  ret i32 %5
}

; Function Attrs: mustprogress nounwind uwtable
define linkonce_odr hidden noundef ptr @_ZNK22BaseCountedLoopEndNode4incrEv(ptr noundef nonnull align 8 dereferenceable(60) %0) #1 comdat align 2 {
  %2 = alloca ptr, align 8
  %3 = alloca ptr, align 8
  store ptr %0, ptr %2, align 8
  %4 = load ptr, ptr %2, align 8
  %5 = call noundef ptr @_ZNK22BaseCountedLoopEndNode8cmp_nodeEv(ptr noundef nonnull align 8 dereferenceable(60) %4)
  store ptr %5, ptr %3, align 8
  %6 = load ptr, ptr %3, align 8
  %7 = icmp ne ptr %6, null
  br i1 %7, label %8, label %15

8:                                                ; preds = %1
  %9 = load ptr, ptr %3, align 8
  %10 = call noundef i32 @_ZNK4Node3reqEv(ptr noundef nonnull align 8 dereferenceable(52) %9)
  %11 = icmp eq i32 %10, 3
  br i1 %11, label %12, label %15

12:                                               ; preds = %8
  %13 = load ptr, ptr %3, align 8
  %14 = call noundef ptr @_ZNK4Node2inEj(ptr noundef nonnull align 8 dereferenceable(52) %13, i32 noundef 1)
  br label %16

15:                                               ; preds = %8, %1
  br label %16

16:                                               ; preds = %15, %12
  %17 = phi ptr [ %14, %12 ], [ null, %15 ]
  ret ptr %17
}

; Function Attrs: mustprogress nounwind uwtable
define linkonce_odr hidden noundef ptr @_ZNK4Node21as_BaseCountedLoopEndEv(ptr noundef nonnull align 8 dereferenceable(52) %0) #1 comdat align 2 {
  %2 = alloca ptr, align 8
  store ptr %0, ptr %2, align 8
  %3 = load ptr, ptr %2, align 8
  ret ptr %3
}

; Function Attrs: mustprogress nounwind uwtable
define linkonce_odr hidden noundef zeroext i1 @_ZNK4Node21is_BaseCountedLoopEndEv(ptr noundef nonnull align 8 dereferenceable(52) %0) #1 comdat align 2 {
  %2 = alloca ptr, align 8
  store ptr %0, ptr %2, align 8
  %3 = load ptr, ptr %2, align 8
  %4 = getelementptr inbounds %class.Node, ptr %3, i32 0, i32 8
  %5 = load i32, ptr %4, align 4
  %6 = and i32 %5, 63
  %7 = icmp eq i32 %6, 53
  ret i1 %7
}

; Function Attrs: mustprogress nounwind uwtable
define linkonce_odr hidden noundef ptr @_ZNK19BaseCountedLoopNode12back_controlEv(ptr noundef nonnull align 8 dereferenceable(72) %0) #1 comdat align 2 {
  %2 = alloca ptr, align 8
  store ptr %0, ptr %2, align 8
  %3 = load ptr, ptr %2, align 8
  %4 = call noundef ptr @_ZNK4Node2inEj(ptr noundef nonnull align 8 dereferenceable(52) %3, i32 noundef 2)
  ret ptr %4
}

; Function Attrs: mustprogress nounwind uwtable
define linkonce_odr hidden noundef ptr @_ZNK22BaseCountedLoopEndNode3phiEv(ptr noundef nonnull align 8 dereferenceable(60) %0) #1 comdat align 2 {
  %2 = alloca ptr, align 8
  %3 = alloca ptr, align 8
  %4 = alloca ptr, align 8
  %5 = alloca ptr, align 8
  store ptr %0, ptr %3, align 8
  %6 = load ptr, ptr %3, align 8
  %7 = call noundef ptr @_ZNK22BaseCountedLoopEndNode4incrEv(ptr noundef nonnull align 8 dereferenceable(60) %6)
  store ptr %7, ptr %4, align 8
  %8 = load ptr, ptr %4, align 8
  %9 = icmp ne ptr %8, null
  br i1 %9, label %10, label %23

10:                                               ; preds = %1
  %11 = load ptr, ptr %4, align 8
  %12 = call noundef i32 @_ZNK4Node3reqEv(ptr noundef nonnull align 8 dereferenceable(52) %11)
  %13 = icmp eq i32 %12, 3
  br i1 %13, label %14, label %23

14:                                               ; preds = %10
  %15 = load ptr, ptr %4, align 8
  %16 = call noundef ptr @_ZNK4Node2inEj(ptr noundef nonnull align 8 dereferenceable(52) %15, i32 noundef 1)
  store ptr %16, ptr %5, align 8
  %17 = load ptr, ptr %5, align 8
  %18 = call noundef zeroext i1 @_ZNK4Node6is_PhiEv(ptr noundef nonnull align 8 dereferenceable(52) %17)
  br i1 %18, label %19, label %22

19:                                               ; preds = %14
  %20 = load ptr, ptr %5, align 8
  %21 = call noundef ptr @_ZNK4Node6as_PhiEv(ptr noundef nonnull align 8 dereferenceable(52) %20)
  store ptr %21, ptr %2, align 8
  br label %24

22:                                               ; preds = %14
  br label %23

23:                                               ; preds = %22, %10, %1
  store ptr null, ptr %2, align 8
  br label %24

24:                                               ; preds = %23, %19
  %25 = load ptr, ptr %2, align 8
  ret ptr %25
}

; Function Attrs: mustprogress nounwind uwtable
define linkonce_odr hidden noundef ptr @_ZNK19BaseCountedLoopNode16loopexit_or_nullEv(ptr noundef nonnull align 8 dereferenceable(72) %0) #1 comdat align 2 {
  %2 = alloca ptr, align 8
  %3 = alloca ptr, align 8
  %4 = alloca ptr, align 8
  %5 = alloca ptr, align 8
  %6 = alloca ptr, align 8
  store ptr %0, ptr %3, align 8
  %7 = load ptr, ptr %3, align 8
  %8 = call noundef ptr @_ZNK19BaseCountedLoopNode12back_controlEv(ptr noundef nonnull align 8 dereferenceable(72) %7)
  store ptr %8, ptr %4, align 8
  %9 = load ptr, ptr %4, align 8
  %10 = icmp eq ptr %9, null
  br i1 %10, label %11, label %12

11:                                               ; preds = %1
  store ptr null, ptr %2, align 8
  br label %36

12:                                               ; preds = %1
  %13 = load ptr, ptr %4, align 8
  %14 = call noundef ptr @_ZNK4Node2inEj(ptr noundef nonnull align 8 dereferenceable(52) %13, i32 noundef 0)
  store ptr %14, ptr %5, align 8
  %15 = load ptr, ptr %5, align 8
  %16 = call noundef zeroext i1 @_ZNK4Node21is_BaseCountedLoopEndEv(ptr noundef nonnull align 8 dereferenceable(52) %15)
  br i1 %16, label %18, label %17

17:                                               ; preds = %12
  store ptr null, ptr %2, align 8
  br label %36

18:                                               ; preds = %12
  %19 = load ptr, ptr %5, align 8
  %20 = call noundef ptr @_ZNK4Node21as_BaseCountedLoopEndEv(ptr noundef nonnull align 8 dereferenceable(52) %19)
  store ptr %20, ptr %6, align 8
  %21 = load ptr, ptr %6, align 8
  %22 = load ptr, ptr %21, align 8
  %23 = getelementptr inbounds ptr, ptr %22, i64 26
  %24 = load ptr, ptr %23, align 8
  %25 = call noundef zeroext i8 %24(ptr noundef nonnull align 8 dereferenceable(60) %21)
  %26 = zext i8 %25 to i32
  %27 = load ptr, ptr %7, align 8
  %28 = getelementptr inbounds ptr, ptr %27, i64 29
  %29 = load ptr, ptr %28, align 8
  %30 = call noundef zeroext i8 %29(ptr noundef nonnull align 8 dereferenceable(72) %7)
  %31 = zext i8 %30 to i32
  %32 = icmp ne i32 %26, %31
  br i1 %32, label %33, label %34

33:                                               ; preds = %18
  store ptr null, ptr %2, align 8
  br label %36

34:                                               ; preds = %18
  %35 = load ptr, ptr %6, align 8
  store ptr %35, ptr %2, align 8
  br label %36

36:                                               ; preds = %34, %33, %17, %11
  %37 = load ptr, ptr %2, align 8
  ret ptr %37
}

; Function Attrs: mustprogress nounwind uwtable
define linkonce_odr hidden noundef ptr @_ZNK19BaseCountedLoopNode3phiEv(ptr noundef nonnull align 8 dereferenceable(72) %0) #1 comdat align 2 {
  %2 = alloca ptr, align 8
  %3 = alloca ptr, align 8
  store ptr %0, ptr %2, align 8
  %4 = load ptr, ptr %2, align 8
  %5 = call noundef ptr @_ZNK19BaseCountedLoopNode16loopexit_or_nullEv(ptr noundef nonnull align 8 dereferenceable(72) %4)
  store ptr %5, ptr %3, align 8
  %6 = load ptr, ptr %3, align 8
  %7 = icmp ne ptr %6, null
  br i1 %7, label %8, label %11

8:                                                ; preds = %1
  %9 = load ptr, ptr %3, align 8
  %10 = call noundef ptr @_ZNK22BaseCountedLoopEndNode3phiEv(ptr noundef nonnull align 8 dereferenceable(60) %9)
  br label %12

11:                                               ; preds = %1
  br label %12

12:                                               ; preds = %11, %8
  %13 = phi ptr [ %10, %8 ], [ null, %11 ]
  ret ptr %13
}

; Function Attrs: mustprogress nounwind uwtable
define linkonce_odr hidden noundef ptr @_ZNK4Node18as_BaseCountedLoopEv(ptr noundef nonnull align 8 dereferenceable(52) %0) #1 comdat align 2 {
  %2 = alloca ptr, align 8
  store ptr %0, ptr %2, align 8
  %3 = load ptr, ptr %2, align 8
  ret ptr %3
}

; Function Attrs: mustprogress nounwind uwtable
define linkonce_odr hidden noundef zeroext i1 @_ZNK4Node18is_BaseCountedLoopEv(ptr noundef nonnull align 8 dereferenceable(52) %0) #1 comdat align 2 {
  %2 = alloca ptr, align 8
  store ptr %0, ptr %2, align 8
  %3 = load ptr, ptr %2, align 8
  %4 = getelementptr inbounds %class.Node, ptr %3, i32 0, i32 8
  %5 = load i32, ptr %4, align 4
  %6 = and i32 %5, 511
  %7 = icmp eq i32 %6, 352
  ret i1 %7
}

; Function Attrs: mustprogress nounwind uwtable
define linkonce_odr hidden noundef ptr @_ZNK4Node2inEj(ptr noundef nonnull align 8 dereferenceable(52) %0, i32 noundef %1) #1 comdat align 2 {
  %3 = alloca ptr, align 8
  %4 = alloca i32, align 4
  store ptr %0, ptr %3, align 8
  store i32 %1, ptr %4, align 4
  %5 = load ptr, ptr %3, align 8
  %6 = getelementptr inbounds %class.Node, ptr %5, i32 0, i32 1
  %7 = load ptr, ptr %6, align 8
  %8 = load i32, ptr %4, align 4
  %9 = zext i32 %8 to i64
  %10 = getelementptr inbounds ptr, ptr %7, i64 %9
  %11 = load ptr, ptr %10, align 8
  ret ptr %11
}

; Function Attrs: mustprogress nounwind uwtable
define hidden noundef zeroext i1 @_ZNK7PhiNode12is_tripcountE9BasicType(ptr noundef nonnull align 8 dereferenceable(88) %0, i8 noundef zeroext %1) #1 align 2 {
  %3 = alloca ptr, align 8
  %4 = alloca i8, align 1
  store ptr %0, ptr %3, align 8
  store i8 %1, ptr %4, align 1
  %5 = load ptr, ptr %3, align 8
  %6 = call noundef ptr @_ZNK4Node2inEj(ptr noundef nonnull align 8 dereferenceable(52) %5, i32 noundef 0)
  %7 = icmp ne ptr %6, null
  br i1 %7, label %8, label %27

8:                                                ; preds = %2
  %9 = call noundef ptr @_ZNK4Node2inEj(ptr noundef nonnull align 8 dereferenceable(52) %5, i32 noundef 0)
  %10 = call noundef zeroext i1 @_ZNK4Node18is_BaseCountedLoopEv(ptr noundef nonnull align 8 dereferenceable(52) %9)
  br i1 %10, label %11, label %27

11:                                               ; preds = %8
  %12 = call noundef ptr @_ZNK4Node2inEj(ptr noundef nonnull align 8 dereferenceable(52) %5, i32 noundef 0)
  %13 = call noundef ptr @_ZNK4Node18as_BaseCountedLoopEv(ptr noundef nonnull align 8 dereferenceable(52) %12)
  %14 = load ptr, ptr %13, align 8
  %15 = getelementptr inbounds ptr, ptr %14, i64 29
  %16 = load ptr, ptr %15, align 8
  %17 = call noundef zeroext i8 %16(ptr noundef nonnull align 8 dereferenceable(72) %13)
  %18 = zext i8 %17 to i32
  %19 = load i8, ptr %4, align 1
  %20 = zext i8 %19 to i32
  %21 = icmp eq i32 %18, %20
  br i1 %21, label %22, label %27

22:                                               ; preds = %11
  %23 = call noundef ptr @_ZNK4Node2inEj(ptr noundef nonnull align 8 dereferenceable(52) %5, i32 noundef 0)
  %24 = call noundef ptr @_ZNK4Node18as_BaseCountedLoopEv(ptr noundef nonnull align 8 dereferenceable(52) %23)
  %25 = call noundef ptr @_ZNK19BaseCountedLoopNode3phiEv(ptr noundef nonnull align 8 dereferenceable(72) %24)
  %26 = icmp eq ptr %25, %5
  br label %27

27:                                               ; preds = %22, %11, %8, %2
  %28 = phi i1 [ false, %11 ], [ false, %8 ], [ false, %2 ], [ %26, %22 ]
  ret i1 %28
}