; Function Attrs: mustprogress nounwind uwtable
define hidden noundef zeroext i1 @_ZNK7PhiNode12is_tripcountE9BasicType(ptr noundef nonnull readonly align 8 dereferenceable(88) %0, i8 noundef zeroext %1) local_unnamed_addr #2 align 2 {
  %3 = getelementptr inbounds i8, ptr %0, i64 8
  %4 = load ptr, ptr %3, align 8
  %5 = load ptr, ptr %4, align 8
  %.not = icmp eq ptr %5, null
  br i1 %.not, label %76, label %6

6:                                                ; preds = %2
  %7 = getelementptr inbounds i8, ptr %5, i64 44
  %8 = load i32, ptr %7, align 4
  %9 = and i32 %8, 511
  %10 = icmp eq i32 %9, 352
  br i1 %10, label %11, label %76

11:                                               ; preds = %6
  %12 = load ptr, ptr %5, align 8
  %13 = getelementptr inbounds i8, ptr %12, i64 232
  %14 = load ptr, ptr %13, align 8
  %15 = tail call noundef zeroext i8 %14(ptr noundef nonnull align 8 dereferenceable(72) %5) #10
  %16 = icmp eq i8 %15, %1
  br i1 %16, label %17, label %76

17:                                               ; preds = %11
  %18 = load ptr, ptr %3, align 8
  %19 = load ptr, ptr %18, align 8
  %20 = getelementptr inbounds i8, ptr %19, i64 8
  %21 = load ptr, ptr %20, align 8
  %22 = getelementptr inbounds i8, ptr %21, i64 16
  %23 = load ptr, ptr %22, align 8
  %24 = icmp eq ptr %23, null
  br i1 %24, label %_ZNK19BaseCountedLoopNode3phiEv.exit, label %25

25:                                               ; preds = %17
  %26 = getelementptr inbounds i8, ptr %23, i64 8
  %27 = load ptr, ptr %26, align 8
  %28 = load ptr, ptr %27, align 8
  %29 = getelementptr inbounds i8, ptr %28, i64 44
  %30 = load i32, ptr %29, align 4
  %31 = and i32 %30, 63
  %32 = icmp eq i32 %31, 53
  br i1 %32, label %33, label %_ZNK19BaseCountedLoopNode3phiEv.exit

33:                                               ; preds = %25
  %34 = load ptr, ptr %28, align 8
  %35 = getelementptr inbounds i8, ptr %34, i64 208
  %36 = load ptr, ptr %35, align 8
  %37 = tail call noundef zeroext i8 %36(ptr noundef nonnull align 8 dereferenceable(60) %28) #10
  %38 = load ptr, ptr %19, align 8
  %39 = getelementptr inbounds i8, ptr %38, i64 232
  %40 = load ptr, ptr %39, align 8
  %41 = tail call noundef zeroext i8 %40(ptr noundef nonnull align 8 dereferenceable(72) %19) #10
  %.not.i.i = icmp eq i8 %37, %41
  br i1 %.not.i.i, label %_ZNK19BaseCountedLoopNode16loopexit_or_nullEv.exit.i, label %_ZNK19BaseCountedLoopNode3phiEv.exit

_ZNK19BaseCountedLoopNode16loopexit_or_nullEv.exit.i: ; preds = %33
  %42 = getelementptr inbounds i8, ptr %28, i64 8
  %43 = load ptr, ptr %42, align 8
  %44 = getelementptr inbounds i8, ptr %43, i64 8
  %45 = load ptr, ptr %44, align 8
  %46 = getelementptr inbounds i8, ptr %45, i64 24
  %47 = load i32, ptr %46, align 8
  %48 = icmp ugt i32 %47, 1
  br i1 %48, label %_ZNK22BaseCountedLoopEndNode8cmp_nodeEv.exit.i.i.i, label %_ZNK19BaseCountedLoopNode3phiEv.exit

_ZNK22BaseCountedLoopEndNode8cmp_nodeEv.exit.i.i.i: ; preds = %_ZNK19BaseCountedLoopNode16loopexit_or_nullEv.exit.i
  %49 = getelementptr inbounds i8, ptr %45, i64 8
  %50 = load ptr, ptr %49, align 8
  %51 = getelementptr inbounds i8, ptr %50, i64 8
  %52 = load ptr, ptr %51, align 8
  %.not.i.i.i = icmp eq ptr %52, null
  br i1 %.not.i.i.i, label %_ZNK19BaseCountedLoopNode3phiEv.exit, label %53

53:                                               ; preds = %_ZNK22BaseCountedLoopEndNode8cmp_nodeEv.exit.i.i.i
  %54 = getelementptr inbounds i8, ptr %52, i64 24
  %55 = load i32, ptr %54, align 8
  %56 = icmp eq i32 %55, 3
  br i1 %56, label %_ZNK22BaseCountedLoopEndNode4incrEv.exit.i.i, label %_ZNK19BaseCountedLoopNode3phiEv.exit

_ZNK22BaseCountedLoopEndNode4incrEv.exit.i.i:     ; preds = %53
  %57 = getelementptr inbounds i8, ptr %52, i64 8
  %58 = load ptr, ptr %57, align 8
  %59 = getelementptr inbounds i8, ptr %58, i64 8
  %60 = load ptr, ptr %59, align 8
  %.not.i4.i = icmp eq ptr %60, null
  br i1 %.not.i4.i, label %_ZNK19BaseCountedLoopNode3phiEv.exit, label %61

61:                                               ; preds = %_ZNK22BaseCountedLoopEndNode4incrEv.exit.i.i
  %62 = getelementptr inbounds i8, ptr %60, i64 24
  %63 = load i32, ptr %62, align 8
  %64 = icmp eq i32 %63, 3
  br i1 %64, label %65, label %_ZNK19BaseCountedLoopNode3phiEv.exit

65:                                               ; preds = %61
  %66 = getelementptr inbounds i8, ptr %60, i64 8
  %67 = load ptr, ptr %66, align 8
  %68 = getelementptr inbounds i8, ptr %67, i64 8
  %69 = load ptr, ptr %68, align 8
  %70 = getelementptr inbounds i8, ptr %69, i64 44
  %71 = load i32, ptr %70, align 4
  %72 = and i32 %71, 15
  %73 = icmp eq i32 %72, 12
  %spec.select.i.i = select i1 %73, ptr %69, ptr null
  br label %_ZNK19BaseCountedLoopNode3phiEv.exit

_ZNK19BaseCountedLoopNode3phiEv.exit:             ; preds = %17, %25, %33, %_ZNK19BaseCountedLoopNode16loopexit_or_nullEv.exit.i, %_ZNK22BaseCountedLoopEndNode8cmp_nodeEv.exit.i.i.i, %53, %_ZNK22BaseCountedLoopEndNode4incrEv.exit.i.i, %61, %65
  %74 = phi ptr [ null, %61 ], [ null, %_ZNK22BaseCountedLoopEndNode4incrEv.exit.i.i ], [ null, %53 ], [ null, %_ZNK22BaseCountedLoopEndNode8cmp_nodeEv.exit.i.i.i ], [ null, %_ZNK19BaseCountedLoopNode16loopexit_or_nullEv.exit.i ], [ %spec.select.i.i, %65 ], [ null, %17 ], [ null, %25 ], [ null, %33 ]
  %75 = icmp eq ptr %74, %0
  br label %76

76:                                               ; preds = %_ZNK19BaseCountedLoopNode3phiEv.exit, %11, %6, %2
  %77 = phi i1 [ false, %11 ], [ false, %6 ], [ false, %2 ], [ %75, %_ZNK19BaseCountedLoopNode3phiEv.exit ]
  ret i1 %77
}